; Function Attrs: mustprogress nofree nounwind memory(read, argmem: readwrite, inaccessiblemem: none) uwtable
define dso_local noundef zeroext i1 @_ZN4llvm20getAsUnsignedIntegerENS_9StringRefEjRy(ptr %0, i64 %1, i32 noundef %2, ptr noundef nonnull writeonly align 8 captures(none) dereferenceable(8) %3) local_unnamed_addr #7 {
  %5 = alloca %"class.llvm::StringRef", align 8
  store ptr %0, ptr %5, align 8
  %6 = getelementptr inbounds nuw i8, ptr %5, i64 8
  store i64 %1, ptr %6, align 8
  %7 = call noundef zeroext i1 @_ZN4llvm22consumeUnsignedIntegerERNS_9StringRefEjRy(ptr noundef nonnull align 8 dereferenceable(16) %5, i32 noundef %2, ptr noundef nonnull align 8 dereferenceable(8) %3)
  %8 = load i64, ptr %6, align 8
  %9 = icmp ne i64 %8, 0
  %.0 = select i1 %7, i1 true, i1 %9
  ret i1 %.0
}